; Function Attrs: nounwind uwtable
define hidden void @zif_xmlwriter_write_dtd(ptr noundef %0, ptr nocapture noundef writeonly %1) #0 {
  %3 = alloca ptr, align 8
  %4 = alloca ptr, align 8
  %5 = alloca ptr, align 8
  %6 = alloca ptr, align 8
  %7 = alloca i64, align 8
  %8 = alloca i64, align 8
  %9 = alloca i64, align 8
  %10 = alloca i64, align 8
  %11 = alloca ptr, align 8
  store ptr null, ptr %4, align 8
  store ptr null, ptr %5, align 8
  store ptr null, ptr %6, align 8
  %12 = getelementptr inbounds i8, ptr %0, i64 32
  %13 = getelementptr inbounds i8, ptr %0, i64 44
  %14 = load i32, ptr %13, align 4
  %15 = getelementptr inbounds i8, ptr %0, i64 40
  %16 = load i8, ptr %15, align 8
  %17 = icmp eq i8 %16, 8
  %18 = select i1 %17, ptr %12, ptr null
  %19 = load ptr, ptr @xmlwriter_class_entry_ce, align 8
  %20 = call i32 (i32, ptr, ptr, ...) @zend_parse_method_parameters(i32 noundef %14, ptr noundef %18, ptr noundef nonnull @.str.17, ptr noundef nonnull %11, ptr noundef %19, ptr noundef nonnull %3, ptr noundef nonnull %7, ptr noundef nonnull %4, ptr noundef nonnull %8, ptr noundef nonnull %5, ptr noundef nonnull %9, ptr noundef nonnull %6, ptr noundef nonnull %10) #11
  %21 = icmp eq i32 %20, -1
  br i1 %21, label %22, label %25

22:                                               ; preds = %2
  %23 = load ptr, ptr getelementptr inbounds (%struct._zend_executor_globals, ptr @executor_globals, i64 0, i32 50), align 8
  %24 = icmp ne ptr %23, null
  call void @llvm.assume(i1 %24)
  br label %41

25:                                               ; preds = %2
  %26 = load ptr, ptr %11, align 8
  %27 = load ptr, ptr %26, align 8
  %28 = getelementptr inbounds i8, ptr %27, i64 -16
  %29 = load ptr, ptr %28, align 8
  %.not = icmp eq ptr %29, null
  br i1 %.not, label %30, label %33

30:                                               ; preds = %25
  call void (ptr, ptr, ...) @zend_throw_error(ptr noundef null, ptr noundef nonnull @.str.4) #11
  %31 = load ptr, ptr getelementptr inbounds (%struct._zend_executor_globals, ptr @executor_globals, i64 0, i32 50), align 8
  %32 = icmp ne ptr %31, null
  call void @llvm.assume(i1 %32)
  br label %41

33:                                               ; preds = %25
  %34 = load ptr, ptr %3, align 8
  %35 = load ptr, ptr %4, align 8
  %36 = load ptr, ptr %5, align 8
  %37 = load ptr, ptr %6, align 8
  %38 = call i32 @xmlTextWriterWriteDTD(ptr noundef nonnull %29, ptr noundef %34, ptr noundef %35, ptr noundef %36, ptr noundef %37) #11
  %.not8 = icmp eq i32 %38, -1
  %39 = select i1 %.not8, i32 2, i32 3
  %40 = getelementptr inbounds i8, ptr %1, i64 8
  store i32 %39, ptr %40, align 8
  br label %41

41:                                               ; preds = %33, %30, %22
  ret void
}